target datalayout = "e-m:e-p270:32:32-p271:32:32-p272:64:64-i64:64-i128:128-f80:128-n8:16:32:64-S128"
target triple = "x86_64-pc-linux-gnu"

%struct.h5dump_table_list_t = type { i64, i64, ptr }
%struct.h5dump_table_items_t = type { i64, i64, ptr, ptr, ptr }

@table_list = dso_local global %struct.h5dump_table_list_t zeroinitializer, align 8

; Function Attrs: nounwind willreturn memory(read) uwtable
define dso_local i64 @table_list_visited(i64 noundef %0) #3 {
  %2 = alloca i64, align 8
  %3 = alloca i64, align 8
  %4 = alloca i64, align 8
  store i64 %0, ptr %3, align 8
  store i64 0, ptr %4, align 8
  br label %5

5:                                                ; preds = %20, %1
  %6 = load i64, ptr %4, align 8
  %7 = load i64, ptr getelementptr inbounds (%struct.h5dump_table_list_t, ptr @table_list, i32 0, i32 1), align 8
  %8 = icmp ult i64 %6, %7
  br i1 %8, label %9, label %23

9:                                                ; preds = %5
  %10 = load ptr, ptr getelementptr inbounds (%struct.h5dump_table_list_t, ptr @table_list, i32 0, i32 2), align 8
  %11 = load i64, ptr %4, align 8
  %12 = getelementptr inbounds %struct.h5dump_table_items_t, ptr %10, i64 %11
  %13 = getelementptr inbounds %struct.h5dump_table_items_t, ptr %12, i32 0, i32 0
  %14 = load i64, ptr %13, align 8
  %15 = load i64, ptr %3, align 8
  %16 = icmp eq i64 %14, %15
  br i1 %16, label %17, label %19

17:                                               ; preds = %9
  %18 = load i64, ptr %4, align 8
  store i64 %18, ptr %2, align 8
  br label %24

19:                                               ; preds = %9
  br label %20

20:                                               ; preds = %19
  %21 = load i64, ptr %4, align 8
  %22 = add i64 %21, 1
  store i64 %22, ptr %4, align 8
  br label %5

23:                                               ; preds = %5
  store i64 -1, ptr %2, align 8
  br label %24

24:                                               ; preds = %23, %17
  %25 = load i64, ptr %2, align 8
  ret i64 %25
}