; Function Attrs: mustprogress nofree norecurse nosync nounwind willreturn memory(read, inaccessiblemem: none) uwtable
define dso_local i64 @table_list_visited(i64 noundef %0) local_unnamed_addr #3 {
  %2 = load i64, ptr getelementptr inbounds (i8, ptr @table_list, i64 8), align 8
  %.not = icmp eq i64 %2, 0
  br i1 %.not, label %._crit_edge, label %.lr.ph

.lr.ph:                                           ; preds = %1
  %3 = load ptr, ptr getelementptr inbounds (i8, ptr @table_list, i64 16), align 8
  br label %4

4:                                                ; preds = %.lr.ph, %8
  %.07 = phi i64 [ 0, %.lr.ph ], [ %9, %8 ]
  %5 = getelementptr inbounds %struct.h5dump_table_items_t, ptr %3, i64 %.07
  %6 = load i64, ptr %5, align 8
  %7 = icmp eq i64 %6, %0
  br i1 %7, label %._crit_edge, label %8

8:                                                ; preds = %4
  %9 = add nuw i64 %.07, 1
  %exitcond.not = icmp eq i64 %9, %2
  br i1 %exitcond.not, label %._crit_edge, label %4

._crit_edge:                                      ; preds = %4, %8, %1
  %.06 = phi i64 [ -1, %1 ], [ -1, %8 ], [ %.07, %4 ]
  ret i64 %.06
}